target datalayout = "e-m:e-p270:32:32-p271:32:32-p272:64:64-i64:64-i128:128-f80:128-n8:16:32:64-S128"
target triple = "x86_64-pc-linux-gnu"

%struct.Trigger = type { i32, ptr, i32, i16, i8, i8, i8, i32, i32, i32, i8, i8, i16, i16, ptr, ptr, ptr, ptr, ptr }
%struct.TriggerDesc = type { ptr, i32, i8, i8, i8, i8, i8, i8, i8, i8, i8, i8, i8, i8, i8, i8, i8, i8, i8, i8, i8, i8, i8 }

; Function Attrs: nounwind uwtable
define dso_local void @FreeTriggerDesc(ptr noundef %0) #0 {
  %2 = alloca ptr, align 8
  %3 = alloca ptr, align 8
  %4 = alloca i32, align 4
  %5 = alloca i32, align 4
  store ptr %0, ptr %2, align 8
  call void @llvm.lifetime.start.p0(i64 8, ptr %3) #12
  call void @llvm.lifetime.start.p0(i64 4, ptr %4) #12
  %6 = load ptr, ptr %2, align 8
  %7 = icmp eq ptr %6, null
  br i1 %7, label %8, label %9

8:                                                ; preds = %1
  store i32 1, ptr %5, align 4
  br label %98

9:                                                ; preds = %1
  %10 = load ptr, ptr %2, align 8
  %11 = getelementptr inbounds nuw %struct.TriggerDesc, ptr %10, i32 0, i32 0
  %12 = load ptr, ptr %11, align 8
  store ptr %12, ptr %3, align 8
  store i32 0, ptr %4, align 4
  br label %13

13:                                               ; preds = %90, %9
  %14 = load i32, ptr %4, align 4
  %15 = load ptr, ptr %2, align 8
  %16 = getelementptr inbounds nuw %struct.TriggerDesc, ptr %15, i32 0, i32 1
  %17 = load i32, ptr %16, align 8
  %18 = icmp slt i32 %14, %17
  br i1 %18, label %19, label %93

19:                                               ; preds = %13
  %20 = load ptr, ptr %3, align 8
  %21 = getelementptr inbounds nuw %struct.Trigger, ptr %20, i32 0, i32 1
  %22 = load ptr, ptr %21, align 8
  call void @pfree(ptr noundef %22)
  %23 = load ptr, ptr %3, align 8
  %24 = getelementptr inbounds nuw %struct.Trigger, ptr %23, i32 0, i32 13
  %25 = load i16, ptr %24, align 4
  %26 = sext i16 %25 to i32
  %27 = icmp sgt i32 %26, 0
  br i1 %27, label %28, label %32

28:                                               ; preds = %19
  %29 = load ptr, ptr %3, align 8
  %30 = getelementptr inbounds nuw %struct.Trigger, ptr %29, i32 0, i32 14
  %31 = load ptr, ptr %30, align 8
  call void @pfree(ptr noundef %31)
  br label %32

32:                                               ; preds = %28, %19
  %33 = load ptr, ptr %3, align 8
  %34 = getelementptr inbounds nuw %struct.Trigger, ptr %33, i32 0, i32 12
  %35 = load i16, ptr %34, align 2
  %36 = sext i16 %35 to i32
  %37 = icmp sgt i32 %36, 0
  br i1 %37, label %38, label %60

38:                                               ; preds = %32
  br label %39

39:                                               ; preds = %46, %38
  %40 = load ptr, ptr %3, align 8
  %41 = getelementptr inbounds nuw %struct.Trigger, ptr %40, i32 0, i32 12
  %42 = load i16, ptr %41, align 2
  %43 = add i16 %42, -1
  store i16 %43, ptr %41, align 2
  %44 = sext i16 %43 to i32
  %45 = icmp sge i32 %44, 0
  br i1 %45, label %46, label %56

46:                                               ; preds = %39
  %47 = load ptr, ptr %3, align 8
  %48 = getelementptr inbounds nuw %struct.Trigger, ptr %47, i32 0, i32 15
  %49 = load ptr, ptr %48, align 8
  %50 = load ptr, ptr %3, align 8
  %51 = getelementptr inbounds nuw %struct.Trigger, ptr %50, i32 0, i32 12
  %52 = load i16, ptr %51, align 2
  %53 = sext i16 %52 to i64
  %54 = getelementptr inbounds ptr, ptr %49, i64 %53
  %55 = load ptr, ptr %54, align 8
  call void @pfree(ptr noundef %55)
  br label %39, !llvm.loop !27

56:                                               ; preds = %39
  %57 = load ptr, ptr %3, align 8
  %58 = getelementptr inbounds nuw %struct.Trigger, ptr %57, i32 0, i32 15
  %59 = load ptr, ptr %58, align 8
  call void @pfree(ptr noundef %59)
  br label %60

60:                                               ; preds = %56, %32
  %61 = load ptr, ptr %3, align 8
  %62 = getelementptr inbounds nuw %struct.Trigger, ptr %61, i32 0, i32 16
  %63 = load ptr, ptr %62, align 8
  %64 = icmp ne ptr %63, null
  br i1 %64, label %65, label %69

65:                                               ; preds = %60
  %66 = load ptr, ptr %3, align 8
  %67 = getelementptr inbounds nuw %struct.Trigger, ptr %66, i32 0, i32 16
  %68 = load ptr, ptr %67, align 8
  call void @pfree(ptr noundef %68)
  br label %69

69:                                               ; preds = %65, %60
  %70 = load ptr, ptr %3, align 8
  %71 = getelementptr inbounds nuw %struct.Trigger, ptr %70, i32 0, i32 17
  %72 = load ptr, ptr %71, align 8
  %73 = icmp ne ptr %72, null
  br i1 %73, label %74, label %78

74:                                               ; preds = %69
  %75 = load ptr, ptr %3, align 8
  %76 = getelementptr inbounds nuw %struct.Trigger, ptr %75, i32 0, i32 17
  %77 = load ptr, ptr %76, align 8
  call void @pfree(ptr noundef %77)
  br label %78

78:                                               ; preds = %74, %69
  %79 = load ptr, ptr %3, align 8
  %80 = getelementptr inbounds nuw %struct.Trigger, ptr %79, i32 0, i32 18
  %81 = load ptr, ptr %80, align 8
  %82 = icmp ne ptr %81, null
  br i1 %82, label %83, label %87

83:                                               ; preds = %78
  %84 = load ptr, ptr %3, align 8
  %85 = getelementptr inbounds nuw %struct.Trigger, ptr %84, i32 0, i32 18
  %86 = load ptr, ptr %85, align 8
  call void @pfree(ptr noundef %86)
  br label %87

87:                                               ; preds = %83, %78
  %88 = load ptr, ptr %3, align 8
  %89 = getelementptr inbounds nuw %struct.Trigger, ptr %88, i32 1
  store ptr %89, ptr %3, align 8
  br label %90

90:                                               ; preds = %87
  %91 = load i32, ptr %4, align 4
  %92 = add i32 %91, 1
  store i32 %92, ptr %4, align 4
  br label %13, !llvm.loop !28

93:                                               ; preds = %13
  %94 = load ptr, ptr %2, align 8
  %95 = getelementptr inbounds nuw %struct.TriggerDesc, ptr %94, i32 0, i32 0
  %96 = load ptr, ptr %95, align 8
  call void @pfree(ptr noundef %96)
  %97 = load ptr, ptr %2, align 8
  call void @pfree(ptr noundef %97)
  store i32 0, ptr %5, align 4
  br label %98

98:                                               ; preds = %93, %8
  call void @llvm.lifetime.end.p0(i64 4, ptr %4) #12
  call void @llvm.lifetime.end.p0(i64 8, ptr %3) #12
  %99 = load i32, ptr %5, align 4
  switch i32 %99, label %101 [
    i32 0, label %100
    i32 1, label %100
  ]

100:                                              ; preds = %98, %98
  ret void

101:                                              ; preds = %98
  unreachable
}