; Function Attrs: nounwind uwtable
define dso_local void @FreeTriggerDesc(ptr noundef %0) local_unnamed_addr #0 {
  %2 = icmp eq ptr %0, null
  br i1 %2, label %51, label %3

3:                                                ; preds = %1
  %4 = load ptr, ptr %0, align 8
  %5 = getelementptr inbounds nuw i8, ptr %0, i64 8
  %6 = load i32, ptr %5, align 8
  %7 = icmp sgt i32 %6, 0
  br i1 %7, label %.lr.ph32, label %._crit_edge33

.lr.ph32:                                         ; preds = %3, %45
  %.030 = phi i32 [ %47, %45 ], [ 0, %3 ]
  %.02128 = phi ptr [ %46, %45 ], [ %4, %3 ]
  %8 = getelementptr inbounds nuw i8, ptr %.02128, i64 8
  %9 = load ptr, ptr %8, align 8
  tail call void @pfree(ptr noundef %9) #16
  %10 = getelementptr inbounds nuw i8, ptr %.02128, i64 44
  %11 = load i16, ptr %10, align 4
  %12 = icmp sgt i16 %11, 0
  br i1 %12, label %13, label %16

13:                                               ; preds = %.lr.ph32
  %14 = getelementptr inbounds nuw i8, ptr %.02128, i64 48
  %15 = load ptr, ptr %14, align 8
  tail call void @pfree(ptr noundef %15) #16
  br label %16

16:                                               ; preds = %13, %.lr.ph32
  %17 = getelementptr inbounds nuw i8, ptr %.02128, i64 42
  %18 = load i16, ptr %17, align 2
  %19 = icmp sgt i16 %18, 0
  br i1 %19, label %.lr.ph, label %33

.lr.ph:                                           ; preds = %16
  %20 = add nsw i16 %18, -1
  store i16 %20, ptr %17, align 2
  %21 = getelementptr inbounds nuw i8, ptr %.02128, i64 56
  br label %22

22:                                               ; preds = %.lr.ph, %22
  %23 = phi i16 [ %20, %.lr.ph ], [ %29, %22 ]
  %24 = load ptr, ptr %21, align 8
  %25 = zext nneg i16 %23 to i64
  %26 = getelementptr inbounds nuw ptr, ptr %24, i64 %25
  %27 = load ptr, ptr %26, align 8
  tail call void @pfree(ptr noundef %27) #16
  %28 = load i16, ptr %17, align 2
  %29 = add i16 %28, -1
  store i16 %29, ptr %17, align 2
  %30 = icmp sgt i16 %29, -1
  br i1 %30, label %22, label %._crit_edge, !llvm.loop !24

._crit_edge:                                      ; preds = %22
  %31 = getelementptr inbounds nuw i8, ptr %.02128, i64 56
  %32 = load ptr, ptr %31, align 8
  tail call void @pfree(ptr noundef %32) #16
  br label %33

33:                                               ; preds = %._crit_edge, %16
  %34 = getelementptr inbounds nuw i8, ptr %.02128, i64 64
  %35 = load ptr, ptr %34, align 8
  %.not = icmp eq ptr %35, null
  br i1 %.not, label %37, label %36

36:                                               ; preds = %33
  tail call void @pfree(ptr noundef nonnull %35) #16
  br label %37

37:                                               ; preds = %36, %33
  %38 = getelementptr inbounds nuw i8, ptr %.02128, i64 72
  %39 = load ptr, ptr %38, align 8
  %.not26 = icmp eq ptr %39, null
  br i1 %.not26, label %41, label %40

40:                                               ; preds = %37
  tail call void @pfree(ptr noundef nonnull %39) #16
  br label %41

41:                                               ; preds = %40, %37
  %42 = getelementptr inbounds nuw i8, ptr %.02128, i64 80
  %43 = load ptr, ptr %42, align 8
  %.not27 = icmp eq ptr %43, null
  br i1 %.not27, label %45, label %44

44:                                               ; preds = %41
  tail call void @pfree(ptr noundef nonnull %43) #16
  br label %45

45:                                               ; preds = %44, %41
  %46 = getelementptr inbounds nuw i8, ptr %.02128, i64 88
  %47 = add nuw nsw i32 %.030, 1
  %48 = load i32, ptr %5, align 8
  %49 = icmp slt i32 %47, %48
  br i1 %49, label %.lr.ph32, label %._crit_edge33.loopexit, !llvm.loop !25

._crit_edge33.loopexit:                           ; preds = %45
  %.pre = load ptr, ptr %0, align 8
  br label %._crit_edge33

._crit_edge33:                                    ; preds = %._crit_edge33.loopexit, %3
  %50 = phi ptr [ %.pre, %._crit_edge33.loopexit ], [ %4, %3 ]
  tail call void @pfree(ptr noundef %50) #16
  tail call void @pfree(ptr noundef nonnull %0) #16
  br label %51

51:                                               ; preds = %1, %._crit_edge33
  ret void
}